; Function Attrs: mustprogress uwtable
define hidden noundef zeroext i1 @_ZN6google8protobuf8compiler3cpp19ShouldGenerateClassEPKNS0_10DescriptorERKNS2_7OptionsE(ptr nocapture noundef readonly %descriptor, ptr nocapture noundef nonnull readonly align 8 dereferenceable(206) %options) local_unnamed_addr #4 {
entry:
  %options_.i.i = getelementptr inbounds i8, ptr %descriptor, i64 32
  %0 = load ptr, ptr %options_.i.i, align 8
  %map_entry_.i.i.i = getelementptr inbounds i8, ptr %0, i64 83
  %1 = load i8, ptr %map_entry_.i.i.i, align 1
  %2 = and i8 %1, 1
  %tobool.i.i.i.not = icmp eq i8 %2, 0
  br i1 %tobool.i.i.i.not, label %lor.end, label %lor.rhs

lor.rhs:                                          ; preds = %entry
  %file_.i = getelementptr inbounds i8, ptr %descriptor, i64 16
  %3 = load ptr, ptr %file_.i, align 8
  %call.i.i = tail call noundef i32 @_ZN6google8protobuf8compiler3cpp14GetOptimizeForEPKNS0_14FileDescriptorERKNS2_7OptionsEPb(ptr noundef %3, ptr noundef nonnull align 8 dereferenceable(206) %options, ptr noundef null)
  %cmp.i = icmp ne i32 %call.i.i, 3
  br label %lor.end

lor.end:                                          ; preds = %lor.rhs, %entry
  %4 = phi i1 [ true, %entry ], [ %cmp.i, %lor.rhs ]
  ret i1 %4
}